; Function Attrs: mustprogress nofree norecurse nosync nounwind willreturn memory(read, inaccessiblemem: none) uwtable
define hidden noundef zeroext i1 @_ZNK19OpenColorIO_v2_5dev22ExposureContrastOpData18hasDynamicPropertyENS_19DynamicPropertyTypeE(ptr noundef nonnull readonly align 8 captures(none) dereferenceable(248) %0, i32 noundef %1) local_unnamed_addr #8 align 2 {
  %3 = icmp ult i32 %1, 3
  br i1 %3, label %switch.lookup, label %12

switch.lookup:                                    ; preds = %2
  %4 = shl nuw nsw i32 %1, 4
  %5 = zext nneg i32 %4 to i64
  %6 = getelementptr inbounds nuw i8, ptr %0, i64 %5
  %7 = getelementptr inbounds nuw i8, ptr %6, i64 176
  %8 = load ptr, ptr %7, align 8, !tbaa !42
  %9 = getelementptr inbounds nuw i8, ptr %8, i64 12
  %10 = load i8, ptr %9, align 4, !tbaa !76, !range !81, !noundef !82
  %11 = trunc nuw i8 %10 to i1
  br label %12

12:                                               ; preds = %2, %switch.lookup
  %.0.shrunk = phi i1 [ false, %2 ], [ %11, %switch.lookup ]
  ret i1 %.0.shrunk
}